target datalayout = "e-m:e-p270:32:32-p271:32:32-p272:64:64-i64:64-i128:128-f80:128-n8:16:32:64-S128"
target triple = "x86_64-pc-linux-gnu"

; Function Attrs: nounwind uwtable
define i32 @ossl_rsa_check_key_size(ptr noundef %0, i32 noundef %1) #0 {
  %3 = alloca i32, align 4
  %4 = alloca ptr, align 8
  %5 = alloca i32, align 4
  %6 = alloca i32, align 4
  %7 = alloca i32, align 4
  store ptr %0, ptr %4, align 8, !tbaa !3
  store i32 %1, ptr %5, align 4, !tbaa !8
  call void @llvm.lifetime.start.p0(i64 4, ptr %6) #3
  %8 = load ptr, ptr %4, align 8, !tbaa !3
  %9 = call i32 @RSA_bits(ptr noundef %8)
  store i32 %9, ptr %6, align 4, !tbaa !8
  %10 = load i32, ptr %5, align 4, !tbaa !8
  %11 = icmp ne i32 %10, 0
  br i1 %11, label %12, label %15

12:                                               ; preds = %2
  %13 = load i32, ptr %6, align 4, !tbaa !8
  %14 = icmp slt i32 %13, 2048
  br i1 %14, label %18, label %19

15:                                               ; preds = %2
  %16 = load i32, ptr %6, align 4, !tbaa !8
  %17 = icmp slt i32 %16, 1024
  br i1 %17, label %18, label %19

18:                                               ; preds = %15, %12
  store i32 0, ptr %3, align 4
  store i32 1, ptr %7, align 4
  br label %20

19:                                               ; preds = %15, %12
  store i32 1, ptr %3, align 4
  store i32 1, ptr %7, align 4
  br label %20

20:                                               ; preds = %19, %18
  call void @llvm.lifetime.end.p0(i64 4, ptr %6) #3
  %21 = load i32, ptr %3, align 4
  ret i32 %21
}