; Function Attrs: nounwind uwtable
define range(i32 0, 2) i32 @ossl_rsa_check_key_size(ptr noundef %0, i32 noundef %1) local_unnamed_addr #0 {
  %3 = tail call i32 @RSA_bits(ptr noundef %0) #3
  %.not = icmp eq i32 %1, 0
  br i1 %.not, label %6, label %4

4:                                                ; preds = %2
  %5 = icmp slt i32 %3, 2048
  br i1 %5, label %9, label %8

6:                                                ; preds = %2
  %7 = icmp slt i32 %3, 1024
  br i1 %7, label %9, label %8

8:                                                ; preds = %6, %4
  br label %9

9:                                                ; preds = %4, %6, %8
  %.0 = phi i32 [ 1, %8 ], [ 0, %6 ], [ 0, %4 ]
  ret i32 %.0
}